target datalayout = "e-m:e-p270:32:32-p271:32:32-p272:64:64-i64:64-i128:128-f80:128-n8:16:32:64-S128"
target triple = "x86_64-pc-linux-gnu"

; Function Attrs: nounwind uwtable
define ptr @d2i_CMS_bio(ptr noundef %0, ptr noundef %1) #0 {
  %3 = alloca ptr, align 8
  %4 = alloca ptr, align 8
  %5 = alloca ptr, align 8
  %6 = alloca ptr, align 8
  store ptr %0, ptr %3, align 8, !tbaa !21
  store ptr %1, ptr %4, align 8, !tbaa !23
  call void @llvm.lifetime.start.p0(i64 8, ptr %5) #3
  call void @llvm.lifetime.start.p0(i64 8, ptr %6) #3
  %7 = load ptr, ptr %4, align 8, !tbaa !23
  %8 = icmp eq ptr %7, null
  br i1 %8, label %9, label %10

9:                                                ; preds = %2
  br label %13

10:                                               ; preds = %2
  %11 = load ptr, ptr %4, align 8, !tbaa !23
  %12 = load ptr, ptr %11, align 8, !tbaa !8
  br label %13

13:                                               ; preds = %10, %9
  %14 = phi ptr [ null, %9 ], [ %12, %10 ]
  %15 = call ptr @ossl_cms_get0_cmsctx(ptr noundef %14)
  store ptr %15, ptr %6, align 8, !tbaa !25
  %16 = call ptr @CMS_ContentInfo_it()
  %17 = load ptr, ptr %3, align 8, !tbaa !21
  %18 = load ptr, ptr %4, align 8, !tbaa !23
  %19 = load ptr, ptr %6, align 8, !tbaa !25
  %20 = call ptr @ossl_cms_ctx_get0_libctx(ptr noundef %19)
  %21 = load ptr, ptr %6, align 8, !tbaa !25
  %22 = call ptr @ossl_cms_ctx_get0_propq(ptr noundef %21)
  %23 = call ptr @ASN1_item_d2i_bio_ex(ptr noundef %16, ptr noundef %17, ptr noundef %18, ptr noundef %20, ptr noundef %22)
  store ptr %23, ptr %5, align 8, !tbaa !8
  %24 = load ptr, ptr %5, align 8, !tbaa !8
  %25 = icmp ne ptr %24, null
  br i1 %25, label %26, label %30

26:                                               ; preds = %13
  %27 = call i32 @ERR_set_mark()
  %28 = load ptr, ptr %5, align 8, !tbaa !8
  call void @ossl_cms_resolve_libctx(ptr noundef %28)
  %29 = call i32 @ERR_pop_to_mark()
  br label %30

30:                                               ; preds = %26, %13
  %31 = load ptr, ptr %5, align 8, !tbaa !8
  call void @llvm.lifetime.end.p0(i64 8, ptr %6) #3
  call void @llvm.lifetime.end.p0(i64 8, ptr %5) #3
  ret ptr %31
}