; Function Attrs: nounwind uwtable
define ptr @d2i_CMS_bio(ptr noundef %0, ptr noundef %1) local_unnamed_addr #0 {
  %3 = icmp eq ptr %1, null
  br i1 %3, label %6, label %4

4:                                                ; preds = %2
  %5 = load ptr, ptr %1, align 8, !tbaa !15
  br label %6

6:                                                ; preds = %2, %4
  %7 = phi ptr [ %5, %4 ], [ null, %2 ]
  %8 = tail call ptr @ossl_cms_get0_cmsctx(ptr noundef %7) #2
  %9 = tail call ptr @CMS_ContentInfo_it() #2
  %10 = tail call ptr @ossl_cms_ctx_get0_libctx(ptr noundef %8) #2
  %11 = tail call ptr @ossl_cms_ctx_get0_propq(ptr noundef %8) #2
  %12 = tail call ptr @ASN1_item_d2i_bio_ex(ptr noundef %9, ptr noundef %0, ptr noundef %1, ptr noundef %10, ptr noundef %11) #2
  %.not = icmp eq ptr %12, null
  br i1 %.not, label %16, label %13

13:                                               ; preds = %6
  %14 = tail call i32 @ERR_set_mark() #2
  tail call void @ossl_cms_resolve_libctx(ptr noundef nonnull %12) #2
  %15 = tail call i32 @ERR_pop_to_mark() #2
  br label %16

16:                                               ; preds = %13, %6
  ret ptr %12
}